target datalayout = "e-m:e-p270:32:32-p271:32:32-p272:64:64-i64:64-i128:128-f80:128-n8:16:32:64-S128"
target triple = "x86_64-pc-linux-gnu"

%struct.AVFilterContext = type { ptr, ptr, ptr, ptr, ptr, i32, ptr, ptr, i32, ptr, ptr, i32, i32, ptr, ptr, ptr, ptr, i32, ptr, i32, i32 }
%struct.UnsharpContext = type { ptr, i32, i32, i32, i32, i32, i32, float, float, float, %struct.UnsharpFilterParam, %struct.UnsharpFilterParam, %struct.UnsharpFilterParam, i32, i32, i32, i32, i32, i32, ptr }
%struct.UnsharpFilterParam = type { i32, i32, i32, i32, i32, i32, i32, ptr, ptr }

; Function Attrs: cold nounwind optsize uwtable
define internal void @uninit(ptr noundef %0) #0 {
  %2 = alloca ptr, align 8
  %3 = alloca ptr, align 8
  store ptr %0, ptr %2, align 8, !tbaa !4
  call void @llvm.lifetime.start.p0(i64 8, ptr %3) #8
  %4 = load ptr, ptr %2, align 8, !tbaa !4
  %5 = getelementptr inbounds nuw %struct.AVFilterContext, ptr %4, i32 0, i32 9
  %6 = load ptr, ptr %5, align 8, !tbaa !9
  store ptr %6, ptr %3, align 8, !tbaa !22
  %7 = load ptr, ptr %3, align 8, !tbaa !22
  %8 = getelementptr inbounds nuw %struct.UnsharpContext, ptr %7, i32 0, i32 10
  %9 = load ptr, ptr %3, align 8, !tbaa !22
  %10 = getelementptr inbounds nuw %struct.UnsharpContext, ptr %9, i32 0, i32 18
  %11 = load i32, ptr %10, align 4, !tbaa !39
  call void @free_filter_param(ptr noundef %8, i32 noundef %11)
  %12 = load ptr, ptr %3, align 8, !tbaa !22
  %13 = getelementptr inbounds nuw %struct.UnsharpContext, ptr %12, i32 0, i32 11
  %14 = load ptr, ptr %3, align 8, !tbaa !22
  %15 = getelementptr inbounds nuw %struct.UnsharpContext, ptr %14, i32 0, i32 18
  %16 = load i32, ptr %15, align 4, !tbaa !39
  call void @free_filter_param(ptr noundef %13, i32 noundef %16)
  call void @llvm.lifetime.end.p0(i64 8, ptr %3) #8
  ret void
}