; Function Attrs: cold nounwind optsize uwtable
define internal void @uninit(ptr noundef readonly captures(none) %0) #0 {
  %2 = getelementptr inbounds nuw i8, ptr %0, i64 72
  %3 = load ptr, ptr %2, align 8, !tbaa !4
  %4 = getelementptr inbounds nuw i8, ptr %3, i64 48
  %5 = getelementptr inbounds nuw i8, ptr %3, i64 212
  %6 = load i32, ptr %5, align 4, !tbaa !34
  tail call fastcc void @free_filter_param(ptr noundef nonnull %4, i32 noundef %6)
  %7 = getelementptr inbounds nuw i8, ptr %3, i64 96
  %8 = load i32, ptr %5, align 4, !tbaa !34
  tail call fastcc void @free_filter_param(ptr noundef nonnull %7, i32 noundef %8)
  ret void
}